target datalayout = "e-m:e-p270:32:32-p271:32:32-p272:64:64-i64:64-i128:128-f80:128-n8:16:32:64-S128"
target triple = "x86_64-pc-linux-gnu"

%"class.Imath_3_2::Vec3" = type { float, float, float }
%"class.Imath_3_2::Vec2.0" = type { float, float }
%"struct.Imf_3_4::Rgba" = type { %"class.Imath_3_2::half", %"class.Imath_3_2::half", %"class.Imath_3_2::half", %"class.Imath_3_2::half" }
%"class.Imath_3_2::half" = type { i16 }
%"class.Imath_3_2::Box" = type { %"class.Imath_3_2::Vec2", %"class.Imath_3_2::Vec2" }
%"class.Imath_3_2::Vec2" = type { i32, i32 }
%"class.Imf_3_4::Array2D" = type { i64, i64, ptr }

; Function Attrs: inlinehint mustprogress nounwind uwtable
define linkonce_odr dso_local noundef ptr @_ZN7Imf_3_47Array2DINS_4RgbaEEixEl(ptr noundef nonnull align 8 dereferenceable(24) %0, i64 noundef %1) #6 comdat align 2 {
  %3 = alloca ptr, align 8
  %4 = alloca i64, align 8
  store ptr %0, ptr %3, align 8, !tbaa !21
  store i64 %1, ptr %4, align 8, !tbaa !40
  %5 = load ptr, ptr %3, align 8
  %6 = getelementptr inbounds nuw %"class.Imf_3_4::Array2D", ptr %5, i32 0, i32 2
  %7 = load ptr, ptr %6, align 8, !tbaa !42
  %8 = load i64, ptr %4, align 8, !tbaa !40
  %9 = getelementptr inbounds nuw %"class.Imf_3_4::Array2D", ptr %5, i32 0, i32 1
  %10 = load i64, ptr %9, align 8, !tbaa !45
  %11 = mul nsw i64 %8, %10
  %12 = getelementptr inbounds %"struct.Imf_3_4::Rgba", ptr %7, i64 %11
  ret ptr %12
}

; Function Attrs: inlinehint mustprogress nounwind uwtable
define linkonce_odr dso_local void @_ZN9Imath_3_24Vec3IfEC2ERKS1_(ptr noundef nonnull align 4 dereferenceable(12) %0, ptr noundef nonnull align 4 dereferenceable(12) %1) unnamed_addr #6 comdat align 2 {
  %3 = alloca ptr, align 8
  %4 = alloca ptr, align 8
  store ptr %0, ptr %3, align 8, !tbaa !34
  store ptr %1, ptr %4, align 8, !tbaa !34
  %5 = load ptr, ptr %3, align 8
  %6 = getelementptr inbounds nuw %"class.Imath_3_2::Vec3", ptr %5, i32 0, i32 0
  %7 = load ptr, ptr %4, align 8, !tbaa !34
  %8 = getelementptr inbounds nuw %"class.Imath_3_2::Vec3", ptr %7, i32 0, i32 0
  %9 = load float, ptr %8, align 4, !tbaa !36
  store float %9, ptr %6, align 4, !tbaa !36
  %10 = getelementptr inbounds nuw %"class.Imath_3_2::Vec3", ptr %5, i32 0, i32 1
  %11 = load ptr, ptr %4, align 8, !tbaa !34
  %12 = getelementptr inbounds nuw %"class.Imath_3_2::Vec3", ptr %11, i32 0, i32 1
  %13 = load float, ptr %12, align 4, !tbaa !38
  store float %13, ptr %10, align 4, !tbaa !38
  %14 = getelementptr inbounds nuw %"class.Imath_3_2::Vec3", ptr %5, i32 0, i32 2
  %15 = load ptr, ptr %4, align 8, !tbaa !34
  %16 = getelementptr inbounds nuw %"class.Imath_3_2::Vec3", ptr %15, i32 0, i32 2
  %17 = load float, ptr %16, align 4, !tbaa !39
  store float %17, ptr %14, align 4, !tbaa !39
  ret void
}

; Function Attrs: inlinehint mustprogress nounwind uwtable
define linkonce_odr dso_local void @_ZN9Imath_3_24Vec2IfEC2Eff(ptr noundef nonnull align 4 dereferenceable(8) %0, float noundef %1, float noundef %2) unnamed_addr #6 comdat align 2 {
  %4 = alloca ptr, align 8
  %5 = alloca float, align 4
  %6 = alloca float, align 4
  store ptr %0, ptr %4, align 8, !tbaa !29
  store float %1, ptr %5, align 4, !tbaa !11
  store float %2, ptr %6, align 4, !tbaa !11
  %7 = load ptr, ptr %4, align 8
  %8 = getelementptr inbounds nuw %"class.Imath_3_2::Vec2.0", ptr %7, i32 0, i32 0
  %9 = load float, ptr %5, align 4, !tbaa !11
  store float %9, ptr %8, align 4, !tbaa !31
  %10 = getelementptr inbounds nuw %"class.Imath_3_2::Vec2.0", ptr %7, i32 0, i32 1
  %11 = load float, ptr %6, align 4, !tbaa !11
  store float %11, ptr %10, align 4, !tbaa !33
  ret void
}

; Function Attrs: mustprogress uwtable
define dso_local void @_Z13resizeLatLongRK11EnvmapImageRS_RKN9Imath_3_23BoxINS3_4Vec2IiEEEEfi(ptr noundef nonnull align 8 dereferenceable(48) %0, ptr noundef nonnull align 8 dereferenceable(48) %1, ptr noundef nonnull align 4 dereferenceable(16) %2, float noundef %3, i32 noundef %4) #4 {
  %6 = alloca ptr, align 8
  %7 = alloca ptr, align 8
  %8 = alloca ptr, align 8
  %9 = alloca float, align 4
  %10 = alloca i32, align 4
  %11 = alloca i32, align 4
  %12 = alloca i32, align 4
  %13 = alloca float, align 4
  %14 = alloca ptr, align 8
  %15 = alloca i32, align 4
  %16 = alloca i32, align 4
  %17 = alloca i32, align 4
  %18 = alloca %"class.Imath_3_2::Vec3", align 4
  %19 = alloca %"class.Imath_3_2::Vec2.0", align 4
  %20 = alloca %"struct.Imf_3_4::Rgba", align 2
  %21 = alloca %"class.Imath_3_2::Vec3", align 4
  store ptr %0, ptr %6, align 8, !tbaa !4
  store ptr %1, ptr %7, align 8, !tbaa !4
  store ptr %2, ptr %8, align 8, !tbaa !9
  store float %3, ptr %9, align 4, !tbaa !11
  store i32 %4, ptr %10, align 4, !tbaa !13
  call void @llvm.lifetime.start.p0(i64 4, ptr %11) #3
  %22 = load ptr, ptr %8, align 8, !tbaa !9
  %23 = getelementptr inbounds nuw %"class.Imath_3_2::Box", ptr %22, i32 0, i32 1
  %24 = getelementptr inbounds nuw %"class.Imath_3_2::Vec2", ptr %23, i32 0, i32 0
  %25 = load i32, ptr %24, align 4, !tbaa !15
  %26 = load ptr, ptr %8, align 8, !tbaa !9
  %27 = getelementptr inbounds nuw %"class.Imath_3_2::Box", ptr %26, i32 0, i32 0
  %28 = getelementptr inbounds nuw %"class.Imath_3_2::Vec2", ptr %27, i32 0, i32 0
  %29 = load i32, ptr %28, align 4, !tbaa !18
  %30 = sub nsw i32 %25, %29
  %31 = add nsw i32 %30, 1
  store i32 %31, ptr %11, align 4, !tbaa !13
  call void @llvm.lifetime.start.p0(i64 4, ptr %12) #3
  %32 = load ptr, ptr %8, align 8, !tbaa !9
  %33 = getelementptr inbounds nuw %"class.Imath_3_2::Box", ptr %32, i32 0, i32 1
  %34 = getelementptr inbounds nuw %"class.Imath_3_2::Vec2", ptr %33, i32 0, i32 1
  %35 = load i32, ptr %34, align 4, !tbaa !19
  %36 = load ptr, ptr %8, align 8, !tbaa !9
  %37 = getelementptr inbounds nuw %"class.Imath_3_2::Box", ptr %36, i32 0, i32 0
  %38 = getelementptr inbounds nuw %"class.Imath_3_2::Vec2", ptr %37, i32 0, i32 1
  %39 = load i32, ptr %38, align 4, !tbaa !20
  %40 = sub nsw i32 %35, %39
  %41 = add nsw i32 %40, 1
  store i32 %41, ptr %12, align 4, !tbaa !13
  call void @llvm.lifetime.start.p0(i64 4, ptr %13) #3
  %42 = load float, ptr %9, align 4, !tbaa !11
  %43 = fpext float %42 to double
  %44 = fmul double 0x400921FB54442D18, %43
  %45 = load i32, ptr %11, align 4, !tbaa !13
  %46 = sitofp i32 %45 to double
  %47 = fdiv double %44, %46
  %48 = fptrunc double %47 to float
  store float %48, ptr %13, align 4, !tbaa !11
  %49 = load ptr, ptr %7, align 8, !tbaa !4
  %50 = load ptr, ptr %8, align 8, !tbaa !9
  call void @_ZN11EnvmapImage6resizeEN7Imf_3_46EnvmapERKN9Imath_3_23BoxINS2_4Vec2IiEEEE(ptr noundef nonnull align 8 dereferenceable(48) %49, i32 noundef 0, ptr noundef nonnull align 4 dereferenceable(16) %50)
  %51 = load ptr, ptr %7, align 8, !tbaa !4
  call void @_ZN11EnvmapImage5clearEv(ptr noundef nonnull align 8 dereferenceable(48) %51)
  call void @llvm.lifetime.start.p0(i64 8, ptr %14) #3
  %52 = load ptr, ptr %7, align 8, !tbaa !4
  %53 = call noundef nonnull align 8 dereferenceable(24) ptr @_ZN11EnvmapImage6pixelsEv(ptr noundef nonnull align 8 dereferenceable(48) %52)
  store ptr %53, ptr %14, align 8, !tbaa !21
  call void @llvm.lifetime.start.p0(i64 4, ptr %15) #3
  store i32 0, ptr %15, align 4, !tbaa !13
  br label %54

54:                                               ; preds = %86, %5
  %55 = load i32, ptr %15, align 4, !tbaa !13
  %56 = load i32, ptr %12, align 4, !tbaa !13
  %57 = icmp slt i32 %55, %56
  br i1 %57, label %59, label %58

58:                                               ; preds = %54
  store i32 2, ptr %16, align 4
  call void @llvm.lifetime.end.p0(i64 4, ptr %15) #3
  br label %89

59:                                               ; preds = %54
  call void @llvm.lifetime.start.p0(i64 4, ptr %17) #3
  store i32 0, ptr %17, align 4, !tbaa !13
  br label %60

60:                                               ; preds = %82, %59
  %61 = load i32, ptr %17, align 4, !tbaa !13
  %62 = load i32, ptr %11, align 4, !tbaa !13
  %63 = icmp slt i32 %61, %62
  br i1 %63, label %65, label %64

64:                                               ; preds = %60
  store i32 5, ptr %16, align 4
  call void @llvm.lifetime.end.p0(i64 4, ptr %17) #3
  br label %85

65:                                               ; preds = %60
  call void @llvm.lifetime.start.p0(i64 12, ptr %18) #3
  %66 = load ptr, ptr %8, align 8, !tbaa !9
  call void @llvm.lifetime.start.p0(i64 8, ptr %19) #3
  %67 = load i32, ptr %17, align 4, !tbaa !13
  %68 = sitofp i32 %67 to float
  %69 = load i32, ptr %15, align 4, !tbaa !13
  %70 = sitofp i32 %69 to float
  call void @_ZN9Imath_3_24Vec2IfEC2Eff(ptr noundef nonnull align 4 dereferenceable(8) %19, float noundef %68, float noundef %70) #3
  call void @_ZN7Imf_3_410LatLongMap9directionERKN9Imath_3_23BoxINS1_4Vec2IiEEEERKNS3_IfEE(ptr dead_on_unwind writable sret(%"class.Imath_3_2::Vec3") align 4 %18, ptr noundef nonnull align 4 dereferenceable(16) %66, ptr noundef nonnull align 4 dereferenceable(8) %19)
  call void @llvm.lifetime.end.p0(i64 8, ptr %19) #3
  call void @llvm.lifetime.start.p0(i64 8, ptr %20) #3
  %71 = load ptr, ptr %6, align 8, !tbaa !4
  call void @_ZN9Imath_3_24Vec3IfEC2ERKS1_(ptr noundef nonnull align 4 dereferenceable(12) %21, ptr noundef nonnull align 4 dereferenceable(12) %18) #3
  %72 = load float, ptr %13, align 4, !tbaa !11
  %73 = load i32, ptr %10, align 4, !tbaa !13
  %74 = call i64 @_ZNK11EnvmapImage14filteredLookupEN9Imath_3_24Vec3IfEEfi(ptr noundef nonnull align 8 dereferenceable(48) %71, ptr noundef %21, float noundef %72, i32 noundef %73)
  store i64 %74, ptr %20, align 2
  %75 = load ptr, ptr %14, align 8, !tbaa !21
  %76 = load i32, ptr %15, align 4, !tbaa !13
  %77 = sext i32 %76 to i64
  %78 = call noundef ptr @_ZN7Imf_3_47Array2DINS_4RgbaEEixEl(ptr noundef nonnull align 8 dereferenceable(24) %75, i64 noundef %77)
  %79 = load i32, ptr %17, align 4, !tbaa !13
  %80 = sext i32 %79 to i64
  %81 = getelementptr inbounds %"struct.Imf_3_4::Rgba", ptr %78, i64 %80
  call void @llvm.memcpy.p0.p0.i64(ptr align 2 %81, ptr align 2 %20, i64 8, i1 false), !tbaa.struct !23
  call void @llvm.lifetime.end.p0(i64 8, ptr %20) #3
  call void @llvm.lifetime.end.p0(i64 12, ptr %18) #3
  br label %82

82:                                               ; preds = %65
  %83 = load i32, ptr %17, align 4, !tbaa !13
  %84 = add nsw i32 %83, 1
  store i32 %84, ptr %17, align 4, !tbaa !13
  br label %60, !llvm.loop !26

85:                                               ; preds = %64
  br label %86

86:                                               ; preds = %85
  %87 = load i32, ptr %15, align 4, !tbaa !13
  %88 = add nsw i32 %87, 1
  store i32 %88, ptr %15, align 4, !tbaa !13
  br label %54, !llvm.loop !28

89:                                               ; preds = %58
  call void @llvm.lifetime.end.p0(i64 8, ptr %14) #3
  call void @llvm.lifetime.end.p0(i64 4, ptr %13) #3
  call void @llvm.lifetime.end.p0(i64 4, ptr %12) #3
  call void @llvm.lifetime.end.p0(i64 4, ptr %11) #3
  ret void
}