; Function Attrs: mustprogress uwtable
define dso_local void @_Z13resizeLatLongRK11EnvmapImageRS_RKN9Imath_3_23BoxINS3_4Vec2IiEEEEfi(ptr noundef nonnull align 8 dereferenceable(48) %0, ptr noundef nonnull align 8 dereferenceable(48) %1, ptr noundef nonnull align 4 dereferenceable(16) %2, float noundef %3, i32 noundef %4) local_unnamed_addr #3 {
  %6 = alloca %"class.Imath_3_2::Vec3", align 4
  %7 = alloca %"class.Imath_3_2::Vec2.0", align 4
  %8 = alloca %"class.Imath_3_2::Vec3", align 4
  %9 = getelementptr inbounds nuw i8, ptr %2, i64 8
  %10 = load i32, ptr %9, align 4, !tbaa !4
  %11 = load i32, ptr %2, align 4, !tbaa !10
  %12 = sub nsw i32 %10, %11
  %13 = add nsw i32 %12, 1
  %14 = getelementptr inbounds nuw i8, ptr %2, i64 12
  %15 = load i32, ptr %14, align 4, !tbaa !11
  %16 = getelementptr inbounds nuw i8, ptr %2, i64 4
  %17 = load i32, ptr %16, align 4, !tbaa !12
  %18 = fpext float %3 to double
  %19 = fmul double %18, 0x400921FB54442D18
  %20 = sitofp i32 %13 to double
  %21 = fdiv double %19, %20
  %22 = fptrunc double %21 to float
  tail call void @_ZN11EnvmapImage6resizeEN7Imf_3_46EnvmapERKN9Imath_3_23BoxINS2_4Vec2IiEEEE(ptr noundef nonnull align 8 dereferenceable(48) %1, i32 noundef 0, ptr noundef nonnull align 4 dereferenceable(16) %2)
  tail call void @_ZN11EnvmapImage5clearEv(ptr noundef nonnull align 8 dereferenceable(48) %1)
  %23 = tail call noundef nonnull align 8 dereferenceable(24) ptr @_ZN11EnvmapImage6pixelsEv(ptr noundef nonnull align 8 dereferenceable(48) %1)
  %.not28 = icmp slt i32 %15, %17
  br i1 %.not28, label %._crit_edge30, label %.preheader.lr.ph

.preheader.lr.ph:                                 ; preds = %5
  %.not2526 = icmp slt i32 %12, 0
  %24 = getelementptr inbounds nuw i8, ptr %7, i64 4
  %25 = getelementptr inbounds nuw i8, ptr %8, i64 4
  %26 = getelementptr inbounds nuw i8, ptr %6, i64 4
  %27 = getelementptr inbounds nuw i8, ptr %8, i64 8
  %28 = getelementptr inbounds nuw i8, ptr %6, i64 8
  %29 = getelementptr inbounds nuw i8, ptr %23, i64 16
  %30 = getelementptr inbounds nuw i8, ptr %23, i64 8
  br i1 %.not2526, label %._crit_edge30, label %.preheader.preheader

.preheader.preheader:                             ; preds = %.preheader.lr.ph
  %31 = add i32 %10, 1
  %32 = sub i32 %31, %11
  %33 = add i32 %15, 1
  %34 = sub i32 %33, %17
  %wide.trip.count36 = zext i32 %34 to i64
  %wide.trip.count = zext i32 %32 to i64
  br label %.preheader

.preheader:                                       ; preds = %.preheader.preheader, %._crit_edge
  %indvars.iv33 = phi i64 [ 0, %.preheader.preheader ], [ %indvars.iv.next34, %._crit_edge ]
  %35 = trunc nuw nsw i64 %indvars.iv33 to i32
  %36 = uitofp nneg i32 %35 to float
  br label %37

._crit_edge30:                                    ; preds = %._crit_edge, %.preheader.lr.ph, %5
  ret void

._crit_edge:                                      ; preds = %37
  %indvars.iv.next34 = add nuw nsw i64 %indvars.iv33, 1
  %exitcond37.not = icmp eq i64 %indvars.iv.next34, %wide.trip.count36
  br i1 %exitcond37.not, label %._crit_edge30, label %.preheader, !llvm.loop !13

37:                                               ; preds = %.preheader, %37
  %indvars.iv = phi i64 [ 0, %.preheader ], [ %indvars.iv.next, %37 ]
  call void @llvm.lifetime.start.p0(i64 12, ptr nonnull %6) #7
  call void @llvm.lifetime.start.p0(i64 8, ptr nonnull %7) #7
  %38 = trunc nuw nsw i64 %indvars.iv to i32
  %39 = uitofp nneg i32 %38 to float
  store float %39, ptr %7, align 4, !tbaa !15
  store float %36, ptr %24, align 4, !tbaa !18
  call void @_ZN7Imf_3_410LatLongMap9directionERKN9Imath_3_23BoxINS1_4Vec2IiEEEERKNS3_IfEE(ptr dead_on_unwind nonnull writable sret(%"class.Imath_3_2::Vec3") align 4 %6, ptr noundef nonnull align 4 dereferenceable(16) %2, ptr noundef nonnull align 4 dereferenceable(8) %7)
  call void @llvm.lifetime.end.p0(i64 8, ptr nonnull %7) #7
  %40 = load float, ptr %6, align 4, !tbaa !19
  store float %40, ptr %8, align 4, !tbaa !19
  %41 = load float, ptr %26, align 4, !tbaa !21
  store float %41, ptr %25, align 4, !tbaa !21
  %42 = load float, ptr %28, align 4, !tbaa !22
  store float %42, ptr %27, align 4, !tbaa !22
  %43 = call i64 @_ZNK11EnvmapImage14filteredLookupEN9Imath_3_24Vec3IfEEfi(ptr noundef nonnull align 8 dereferenceable(48) %0, ptr noundef nonnull %8, float noundef %22, i32 noundef %4)
  %44 = load ptr, ptr %29, align 8, !tbaa !23
  %45 = load i64, ptr %30, align 8, !tbaa !28
  %46 = mul nsw i64 %45, %indvars.iv33
  %47 = getelementptr inbounds %"struct.Imf_3_4::Rgba", ptr %44, i64 %46
  %48 = getelementptr inbounds nuw %"struct.Imf_3_4::Rgba", ptr %47, i64 %indvars.iv
  store i64 %43, ptr %48, align 2
  call void @llvm.lifetime.end.p0(i64 12, ptr nonnull %6) #7
  %indvars.iv.next = add nuw nsw i64 %indvars.iv, 1
  %exitcond.not = icmp eq i64 %indvars.iv.next, %wide.trip.count
  br i1 %exitcond.not, label %._crit_edge, label %37, !llvm.loop !29
}